; Function Attrs: mustprogress nounwind uwtable
define internal fastcc noundef zeroext i1 @"_ZZN6hermes2vmL11parseESDateENS0_10StringViewEENK3$_4clEDs"(ptr nocapture noundef nonnull readonly align 8 dereferenceable(16) %this, i16 noundef zeroext %ch) unnamed_addr #0 align 2 {
entry:
  %0 = load ptr, ptr %this, align 8
  %1 = getelementptr inbounds i8, ptr %this, i64 8
  %2 = load ptr, ptr %1, align 8
  %call = tail call { ptr, ptr } @_ZNK6hermes2vm10StringView3endEv(ptr noundef nonnull align 8 dereferenceable(16) %2)
  %3 = extractvalue { ptr, ptr } %call, 0
  %4 = extractvalue { ptr, ptr } %call, 1
  %5 = load ptr, ptr %0, align 8
  %tobool.not.i.i = icmp eq ptr %5, null
  %char16Ptr_.i.i = getelementptr inbounds i8, ptr %0, i64 8
  %6 = load ptr, ptr %char16Ptr_.i.i, align 8
  %.sink.i.i = select i1 %tobool.not.i.i, ptr %6, ptr %5
  %.sroa.speculated = select i1 %tobool.not.i.i, ptr %4, ptr %3
  %cmp5.i.i.not = icmp eq ptr %.sink.i.i, %.sroa.speculated
  br i1 %cmp5.i.i.not, label %return, label %land.rhs

land.rhs:                                         ; preds = %entry
  %7 = load ptr, ptr %this, align 8
  %8 = load ptr, ptr %7, align 8
  %tobool.not.i = icmp eq ptr %8, null
  br i1 %tobool.not.i, label %_ZNK6hermes2vm10StringView14const_iteratordeEv.exit, label %_ZNK6hermes2vm10StringView14const_iteratordeEv.exit.thread

_ZNK6hermes2vm10StringView14const_iteratordeEv.exit: ; preds = %land.rhs
  %char16Ptr_.i = getelementptr inbounds i8, ptr %7, i64 8
  %9 = load ptr, ptr %char16Ptr_.i, align 8
  %10 = load i16, ptr %9, align 2
  %cmp = icmp eq i16 %10, %ch
  br i1 %cmp, label %if.else.i, label %return

_ZNK6hermes2vm10StringView14const_iteratordeEv.exit.thread: ; preds = %land.rhs
  %11 = load i8, ptr %8, align 1
  %12 = sext i8 %11 to i16
  %cmp5 = icmp eq i16 %12, %ch
  br i1 %cmp5, label %if.then.i, label %return

if.then.i:                                        ; preds = %_ZNK6hermes2vm10StringView14const_iteratordeEv.exit.thread
  %incdec.ptr.i = getelementptr inbounds i8, ptr %8, i64 1
  store ptr %incdec.ptr.i, ptr %7, align 8
  br label %return

if.else.i:                                        ; preds = %_ZNK6hermes2vm10StringView14const_iteratordeEv.exit
  %incdec.ptr3.i = getelementptr inbounds i8, ptr %9, i64 2
  store ptr %incdec.ptr3.i, ptr %char16Ptr_.i, align 8
  br label %return

return:                                           ; preds = %if.else.i, %if.then.i, %_ZNK6hermes2vm10StringView14const_iteratordeEv.exit.thread, %_ZNK6hermes2vm10StringView14const_iteratordeEv.exit, %entry
  %retval.0 = phi i1 [ false, %entry ], [ false, %_ZNK6hermes2vm10StringView14const_iteratordeEv.exit ], [ false, %_ZNK6hermes2vm10StringView14const_iteratordeEv.exit.thread ], [ true, %if.then.i ], [ true, %if.else.i ]
  ret i1 %retval.0
}